target datalayout = "e-m:e-p270:32:32-p271:32:32-p272:64:64-i64:64-i128:128-f80:128-n8:16:32:64-S128"
target triple = "x86_64-unknown-linux-gnu"

; Function Attrs: fn_ret_thunk_extern nounwind null_pointer_is_valid
define dso_local ptr @i915_gem_object_lmem_io_map(ptr noundef %0, i64 noundef %1, i64 noundef %2) local_unnamed_addr #0 align 16 {
  %4 = tail call i64 @__i915_gem_object_get_dma_address(ptr noundef %0, i64 noundef %1) #4
  %5 = getelementptr inbounds i8, ptr %0, i64 704
  %6 = load ptr, ptr %5, align 8
  %7 = getelementptr inbounds i8, ptr %6, i64 48
  %8 = load i64, ptr %7, align 8
  %9 = sub i64 %4, %8
  %10 = getelementptr inbounds i8, ptr %6, i64 40
  %11 = load ptr, ptr %10, align 8
  %12 = getelementptr i8, ptr %11, i64 %9
  ret ptr %12
}

; Function Attrs: null_pointer_is_valid
declare dso_local i64 @__i915_gem_object_get_dma_address(ptr noundef, i64 noundef) local_unnamed_addr #1

; Function Attrs: fn_ret_thunk_extern mustprogress nofree norecurse nounwind null_pointer_is_valid willreturn memory(read, argmem: readwrite, inaccessiblemem: readwrite)
define dso_local zeroext i1 @i915_gem_object_is_lmem(ptr noundef %0) local_unnamed_addr #2 align 16 {
  %2 = getelementptr inbounds i8, ptr %0, i64 704
  %3 = load volatile ptr, ptr %2, align 8
  %4 = icmp eq ptr %3, null
  br i1 %4, label %10, label %5

5:                                                ; preds = %1
  %6 = getelementptr inbounds i8, ptr %3, i64 144
  %7 = load i16, ptr %6, align 8
  %8 = and i16 %7, -3
  %9 = icmp eq i16 %8, 1
  br label %10

10:                                               ; preds = %5, %1
  %11 = phi i1 [ false, %1 ], [ %9, %5 ]
  ret i1 %11
}

; Function Attrs: fn_ret_thunk_extern mustprogress nofree norecurse nounwind null_pointer_is_valid willreturn memory(read, argmem: readwrite, inaccessiblemem: readwrite)
define dso_local zeroext i1 @__i915_gem_object_is_lmem(ptr noundef %0) local_unnamed_addr #2 align 16 {
  %2 = getelementptr inbounds i8, ptr %0, i64 704
  %3 = load volatile ptr, ptr %2, align 8
  %4 = icmp eq ptr %3, null
  br i1 %4, label %10, label %5

5:                                                ; preds = %1
  %6 = getelementptr inbounds i8, ptr %3, i64 144
  %7 = load i16, ptr %6, align 8
  %8 = and i16 %7, -3
  %9 = icmp eq i16 %8, 1
  br label %10

10:                                               ; preds = %5, %1
  %11 = phi i1 [ false, %1 ], [ %9, %5 ]
  ret i1 %11
}

; Function Attrs: fn_ret_thunk_extern nounwind null_pointer_is_valid
define dso_local ptr @__i915_gem_object_create_lmem_with_ps(ptr nocapture noundef readonly %0, i64 noundef %1, i64 noundef %2, i32 noundef %3) local_unnamed_addr #0 align 16 {
  %5 = getelementptr i8, ptr %0, i64 8512
  %6 = load ptr, ptr %5, align 8
  %7 = tail call ptr @i915_gem_object_create_region(ptr noundef %6, i64 noundef %1, i64 noundef %2, i32 noundef %3) #4
  ret ptr %7
}

; Function Attrs: null_pointer_is_valid
declare dso_local ptr @i915_gem_object_create_region(ptr noundef, i64 noundef, i64 noundef, i32 noundef) local_unnamed_addr #1

; Function Attrs: fn_ret_thunk_extern nounwind null_pointer_is_valid
define dso_local ptr @i915_gem_object_create_lmem_from_data(ptr nocapture noundef readonly %0, ptr nocapture noundef readonly %1, i64 noundef %2) local_unnamed_addr #0 align 16 {
  %4 = add i64 %2, -1
  %5 = or i64 %4, 4095
  %6 = add i64 %5, 1
  %7 = getelementptr i8, ptr %0, i64 8512
  %8 = load ptr, ptr %7, align 8
  %9 = tail call ptr @i915_gem_object_create_region(ptr noundef %8, i64 noundef %6, i64 noundef 0, i32 noundef 1) #4
  %10 = icmp ugt ptr %9, inttoptr (i64 -4096 to ptr)
  br i1 %10, label %26, label %11

11:                                               ; preds = %3
  %12 = tail call ptr @i915_gem_object_pin_map_unlocked(ptr noundef %9, i32 noundef 1) #4
  %13 = icmp ugt ptr %12, inttoptr (i64 -4096 to ptr)
  br i1 %13, label %14, label %23

14:                                               ; preds = %11
  %15 = tail call i32 asm sideeffect ".pushsection .smp_locks,\22a\22\0A.balign 4\0A.long 671f - .\0A.popsection\0A671:\0A\09lock; xaddl $0, $1\0A", "=r,=*m,0,*m,~{memory},~{cc},~{dirflag},~{fpsr},~{flags}"(ptr elementtype(i32) %9, i32 -1, ptr elementtype(i32) %9) #4, !srcloc !5
  %16 = icmp eq i32 %15, 1
  br i1 %16, label %17, label %18

17:                                               ; preds = %14
  tail call void asm sideeffect "", "~{memory},~{dirflag},~{fpsr},~{flags}"() #4, !srcloc !6
  br label %21

18:                                               ; preds = %14
  %19 = icmp sgt i32 %15, 0
  br i1 %19, label %21, label %20, !prof !7

20:                                               ; preds = %18
  tail call void @refcount_warn_saturate(ptr noundef %9, i32 noundef 3) #4
  br label %21

21:                                               ; preds = %20, %18, %17
  br i1 %16, label %22, label %26

22:                                               ; preds = %21
  tail call void @drm_gem_object_free(ptr noundef %9) #4
  br label %26

23:                                               ; preds = %11
  tail call void @llvm.memcpy.p0.p0.i64(ptr align 1 %12, ptr align 1 %1, i64 %2, i1 false)
  %24 = getelementptr inbounds i8, ptr %9, i64 216
  %25 = load i64, ptr %24, align 8
  tail call void @__i915_gem_object_flush_map(ptr noundef %9, i64 noundef 0, i64 noundef %25) #4
  tail call void @__i915_gem_object_release_map(ptr noundef %9) #4
  br label %26

26:                                               ; preds = %23, %22, %21, %3
  %27 = phi ptr [ %9, %23 ], [ %9, %3 ], [ %12, %21 ], [ %12, %22 ]
  ret ptr %27
}

; Function Attrs: fn_ret_thunk_extern nounwind null_pointer_is_valid
define dso_local ptr @i915_gem_object_create_lmem(ptr nocapture noundef readonly %0, i64 noundef %1, i32 noundef %2) local_unnamed_addr #0 align 16 {
  %4 = getelementptr i8, ptr %0, i64 8512
  %5 = load ptr, ptr %4, align 8
  %6 = tail call ptr @i915_gem_object_create_region(ptr noundef %5, i64 noundef %1, i64 noundef 0, i32 noundef %2) #4
  ret ptr %6
}

; Function Attrs: null_pointer_is_valid
declare dso_local ptr @i915_gem_object_pin_map_unlocked(ptr noundef, i32 noundef) local_unnamed_addr #1

; Function Attrs: nocallback nofree nounwind willreturn memory(argmem: readwrite)
declare void @llvm.memcpy.p0.p0.i64(ptr noalias nocapture writeonly, ptr noalias nocapture readonly, i64, i1 immarg) #3

; Function Attrs: null_pointer_is_valid
declare dso_local void @__i915_gem_object_release_map(ptr noundef) local_unnamed_addr #1

; Function Attrs: null_pointer_is_valid
declare dso_local void @drm_gem_object_free(ptr noundef) local_unnamed_addr #1

; Function Attrs: null_pointer_is_valid
declare dso_local void @refcount_warn_saturate(ptr noundef, i32 noundef) local_unnamed_addr #1

; Function Attrs: null_pointer_is_valid
declare dso_local void @__i915_gem_object_flush_map(ptr noundef, i64 noundef, i64 noundef) local_unnamed_addr #1


!llvm.module.flags = !{!0, !1, !2, !3, !4}

!0 = !{i32 1, !"wchar_size", i32 2}
!1 = !{i32 8, !"cf-protection-branch", i32 1}
!2 = !{i32 4, !"function_return_thunk_extern", i32 1}
!3 = !{i32 4, !"indirect_branch_cs_prefix", i32 1}
!4 = !{i32 4, !"SkipRaxSetup", i32 1}
!5 = !{i64 2148793198, i64 2148793237, i64 2148793258, i64 2148793295, i64 2148793318, i64 2148793327}
!6 = !{i64 2150568245}
!7 = !{!"branch_weights", i32 2000, i32 1}
